; Function Attrs: nounwind uwtable
define void @lv_subject_set_int(ptr noundef %0, i32 noundef %1) local_unnamed_addr #0 {
  %3 = getelementptr inbounds nuw i8, ptr %0, i64 48
  %4 = load i32, ptr %3, align 8
  %5 = and i32 %4, 15
  %.not = icmp eq i32 %5, 2
  br i1 %.not, label %6, label %lv_subject_notify_if_changed.exit

6:                                                ; preds = %2
  %7 = getelementptr inbounds nuw i8, ptr %0, i64 24
  %8 = load i32, ptr %7, align 8, !tbaa !3
  %9 = getelementptr inbounds nuw i8, ptr %0, i64 32
  store i32 %8, ptr %9, align 8, !tbaa !3
  store i32 %1, ptr %7, align 8, !tbaa !3
  %.not.i = icmp eq i32 %1, %8
  br i1 %.not.i, label %lv_subject_notify_if_changed.exit, label %.sink.split.i

.sink.split.i:                                    ; preds = %6
  tail call void @lv_subject_notify(ptr noundef nonnull %0)
  br label %lv_subject_notify_if_changed.exit

lv_subject_notify_if_changed.exit:                ; preds = %.sink.split.i, %6, %2
  ret void
}